; Function Attrs: nofree norecurse nosync nounwind memory(read, argmem: readwrite, inaccessiblemem: none) uwtable
define i32 @Mig_ManAndNum(ptr noundef captures(none) initializes((80, 84)) %0) local_unnamed_addr #4 {
  %2 = getelementptr inbounds nuw i8, ptr %0, i64 80
  %3 = getelementptr i8, ptr %0, i64 28
  %.val.i = load i32, ptr %3, align 4
  store i32 0, ptr %2, align 8
  %4 = icmp sgt i32 %.val.i, 0
  br i1 %4, label %.lr.ph27.i, label %Mig_ManTypeNum.exit

.lr.ph27.i:                                       ; preds = %1
  %5 = getelementptr i8, ptr %0, i64 32
  %.val18.i = load ptr, ptr %5, align 8
  %6 = getelementptr inbounds nuw i8, ptr %0, i64 72
  %wide.trip.count.i = zext nneg i32 %.val.i to i64
  br label %7

7:                                                ; preds = %._crit_edge.i, %.lr.ph27.i
  %indvars.iv.i = phi i64 [ 0, %.lr.ph27.i ], [ %indvars.iv.next.i, %._crit_edge.i ]
  %.025.i = phi i32 [ 0, %.lr.ph27.i ], [ %.1.lcssa.i, %._crit_edge.i ]
  %8 = getelementptr inbounds nuw ptr, ptr %.val18.i, i64 %indvars.iv.i
  %9 = load ptr, ptr %8, align 8
  store ptr %9, ptr %6, align 8
  %.not.i = icmp eq ptr %9, null
  br i1 %.not.i, label %Mig_ManTypeNum.exit, label %.preheader.i

.preheader.i:                                     ; preds = %7
  %10 = getelementptr i8, ptr %9, i64 12
  %.014.val20.i = load i32, ptr %10, align 4
  %11 = icmp ult i32 %.014.val20.i, -2
  br i1 %11, label %.lr.ph.i, label %._crit_edge.i

.lr.ph.i:                                         ; preds = %.preheader.i, %22
  %.123.i = phi i32 [ %.2.i, %22 ], [ %.025.i, %.preheader.i ]
  %.01421.i = phi ptr [ %23, %22 ], [ %9, %.preheader.i ]
  %12 = getelementptr i8, ptr %.01421.i, i64 4
  %.014.val19.i = load i32, ptr %12, align 4
  %13 = icmp ugt i32 %.014.val19.i, -3
  br i1 %13, label %22, label %Mig_ObjIsNode2.exit.i.i.i

Mig_ObjIsNode2.exit.i.i.i:                        ; preds = %.lr.ph.i
  %14 = getelementptr inbounds nuw i8, ptr %.01421.i, i64 8
  %15 = load i32, ptr %14, align 4
  %16 = icmp ult i32 %15, -2
  br i1 %16, label %Mig_ObjNodeType.exit.i, label %Mig_ObjIsAnd.exit.i.i

Mig_ObjIsAnd.exit.i.i:                            ; preds = %Mig_ObjIsNode2.exit.i.i.i
  %17 = load i32, ptr %.01421.i, align 4
  %18 = lshr i32 %17, 1
  %19 = lshr i32 %.014.val19.i, 1
  %.not.i.i = icmp samesign ult i32 %18, %19
  %spec.select = zext i1 %.not.i.i to i32
  br label %Mig_ObjNodeType.exit.i

Mig_ObjNodeType.exit.i:                           ; preds = %Mig_ObjIsAnd.exit.i.i, %Mig_ObjIsNode2.exit.i.i.i
  %20 = phi i32 [ 0, %Mig_ObjIsNode2.exit.i.i.i ], [ %spec.select, %Mig_ObjIsAnd.exit.i.i ]
  %21 = add nsw i32 %20, %.123.i
  br label %22

22:                                               ; preds = %Mig_ObjNodeType.exit.i, %.lr.ph.i
  %.2.i = phi i32 [ %21, %Mig_ObjNodeType.exit.i ], [ %.123.i, %.lr.ph.i ]
  %23 = getelementptr inbounds nuw i8, ptr %.01421.i, i64 16
  %24 = getelementptr i8, ptr %.01421.i, i64 28
  %.014.val.i = load i32, ptr %24, align 4
  %25 = icmp ult i32 %.014.val.i, -2
  br i1 %25, label %.lr.ph.i, label %._crit_edge.i, !llvm.loop !6

._crit_edge.i:                                    ; preds = %22, %.preheader.i
  %.1.lcssa.i = phi i32 [ %.025.i, %.preheader.i ], [ %.2.i, %22 ]
  %indvars.iv.next.i = add nuw nsw i64 %indvars.iv.i, 1
  %26 = trunc nuw nsw i64 %indvars.iv.next.i to i32
  store i32 %26, ptr %2, align 8
  %exitcond.not.i = icmp eq i64 %indvars.iv.next.i, %wide.trip.count.i
  br i1 %exitcond.not.i, label %Mig_ManTypeNum.exit, label %7, !llvm.loop !7

Mig_ManTypeNum.exit:                              ; preds = %7, %._crit_edge.i, %1
  %.0.lcssa.i = phi i32 [ 0, %1 ], [ %.025.i, %7 ], [ %.1.lcssa.i, %._crit_edge.i ]
  ret i32 %.0.lcssa.i
}